; Function Attrs: nounwind uwtable
define dso_local void @git_deflate_init(ptr noundef initializes((0, 160)) %0, i32 noundef %1) local_unnamed_addr #0 {
  %3 = getelementptr inbounds nuw i8, ptr %0, i64 144
  %4 = getelementptr inbounds nuw i8, ptr %0, i64 152
  %5 = getelementptr inbounds nuw i8, ptr %0, i64 24
  %6 = getelementptr inbounds nuw i8, ptr %0, i64 128
  %7 = getelementptr inbounds nuw i8, ptr %0, i64 136
  %8 = getelementptr inbounds nuw i8, ptr %0, i64 40
  %9 = getelementptr inbounds nuw i8, ptr %0, i64 112
  %10 = getelementptr inbounds nuw i8, ptr %0, i64 120
  tail call void @llvm.memset.p0.i64(ptr noundef nonnull align 8 dereferenceable(160) %0, i8 0, i64 160, i1 false)
  %11 = tail call i32 @deflateInit_(ptr noundef nonnull %0, i32 noundef %1, ptr noundef nonnull @.str, i32 noundef 112) #6
  %12 = load ptr, ptr %0, align 8, !tbaa !14
  %13 = load ptr, ptr %3, align 8, !tbaa !4
  %14 = ptrtoint ptr %12 to i64
  %15 = ptrtoint ptr %13 to i64
  %16 = sub i64 %14, %15
  %17 = load ptr, ptr %5, align 8, !tbaa !16
  %18 = load ptr, ptr %4, align 8, !tbaa !15
  %19 = ptrtoint ptr %17 to i64
  %20 = ptrtoint ptr %18 to i64
  %21 = sub i64 %19, %20
  %22 = load i64, ptr %8, align 8, !tbaa !20
  %23 = load i64, ptr %7, align 8, !tbaa !19
  %24 = add i64 %23, %21
  %.not.i = icmp eq i64 %22, %24
  br i1 %.not.i, label %26, label %25

25:                                               ; preds = %2
  tail call void (ptr, i32, ptr, ...) @BUG_fl(ptr noundef nonnull @.str.11, i32 noundef 56, ptr noundef nonnull @.str.12) #7
  unreachable

26:                                               ; preds = %2
  %27 = getelementptr inbounds nuw i8, ptr %0, i64 16
  %28 = load i64, ptr %27, align 8, !tbaa !18
  %29 = load i64, ptr %6, align 8, !tbaa !17
  %30 = add i64 %29, %16
  %.not21.i = icmp eq i64 %28, %30
  br i1 %.not21.i, label %zlib_post_call.exit, label %31

31:                                               ; preds = %26
  tail call void (ptr, i32, ptr, ...) @BUG_fl(ptr noundef nonnull @.str.11, i32 noundef 58, ptr noundef nonnull @.str.13) #7
  unreachable

zlib_post_call.exit:                              ; preds = %26
  store i64 %22, ptr %7, align 8, !tbaa !19
  store i64 %28, ptr %6, align 8, !tbaa !17
  store ptr %12, ptr %3, align 8, !tbaa !4
  store ptr %17, ptr %4, align 8, !tbaa !15
  %32 = load i64, ptr %9, align 8, !tbaa !21
  %33 = sub i64 %32, %16
  store i64 %33, ptr %9, align 8, !tbaa !21
  %34 = load i64, ptr %10, align 8, !tbaa !23
  %35 = sub i64 %34, %21
  store i64 %35, ptr %10, align 8, !tbaa !23
  %36 = icmp eq i32 %11, 0
  br i1 %36, label %37, label %38

37:                                               ; preds = %zlib_post_call.exit
  ret void

38:                                               ; preds = %zlib_post_call.exit
  %39 = tail call fastcc ptr @zerr_to_string(i32 noundef %11)
  %40 = getelementptr inbounds nuw i8, ptr %0, i64 48
  %41 = load ptr, ptr %40, align 8, !tbaa !25
  %.not = icmp eq ptr %41, null
  %spec.select = select i1 %.not, ptr @.str.2, ptr %41
  tail call void (ptr, ...) @die(ptr noundef nonnull @.str.7, ptr noundef nonnull %39, ptr noundef nonnull %spec.select) #7
  unreachable
}